; ModuleID = '63/911.c'
source_filename = "63/911.c"
target datalayout = "e-m:e-p270:32:32-p271:32:32-p272:64:64-i64:64-f80:128-n8:16:32:64-S128"
target triple = "x86_64-pc-linux-gnu"

@.str = private unnamed_addr constant [6 x i8] c"%d %d\00", align 1
@.str.1 = private unnamed_addr constant [3 x i8] c"%d\00", align 1
@.str.2 = private unnamed_addr constant [4 x i8] c"%d \00", align 1
@.str.3 = private unnamed_addr constant [4 x i8] c"%d\0A\00", align 1

; Function Attrs: noinline nounwind uwtable
define dso_local void @main() #0 {
  %1 = alloca [200 x [200 x i32]], align 16
  %2 = alloca [200 x [200 x i32]], align 16
  %3 = alloca [200 x [200 x i32]], align 16
  %4 = alloca i32, align 4
  %5 = alloca i32, align 4
  %6 = alloca i32, align 4
  %7 = alloca i32, align 4
  %8 = alloca i32, align 4
  %9 = alloca i32, align 4
  %10 = alloca i32, align 4
  %11 = alloca i32, align 4
  %12 = alloca i32, align 4
  %13 = bitcast [200 x [200 x i32]]* %3 to i8*
  call void @llvm.memset.p0i8.i64(i8* align 16 %13, i8 0, i64 160000, i1 false)
  store i32 0, i32* %6, align 4
  %14 = call i32 (i8*, ...) @__isoc99_scanf(i8* getelementptr inbounds ([6 x i8], [6 x i8]* @.str, i64 0, i64 0), i32* %7, i32* %9)
  store i32 0, i32* %11, align 4
  store i32 0, i32* %4, align 4
  br label %15

15:                                               ; preds = %39, %0
  %16 = load i32, i32* %4, align 4
  %17 = load i32, i32* %7, align 4
  %18 = sub nsw i32 %17, 1
  %19 = icmp sle i32 %16, %18
  br i1 %19, label %20, label %42

20:                                               ; preds = %15
  store i32 0, i32* %5, align 4
  br label %21

21:                                               ; preds = %35, %20
  %22 = load i32, i32* %5, align 4
  %23 = load i32, i32* %9, align 4
  %24 = sub nsw i32 %23, 1
  %25 = icmp sle i32 %22, %24
  br i1 %25, label %26, label %38

26:                                               ; preds = %21
  %27 = call i32 (i8*, ...) @__isoc99_scanf(i8* getelementptr inbounds ([3 x i8], [3 x i8]* @.str.1, i64 0, i64 0), i32* %6)
  %28 = load i32, i32* %6, align 4
  %29 = load i32, i32* %4, align 4
  %30 = sext i32 %29 to i64
  %31 = getelementptr inbounds [200 x [200 x i32]], [200 x [200 x i32]]* %1, i64 0, i64 %30
  %32 = load i32, i32* %5, align 4
  %33 = sext i32 %32 to i64
  %34 = getelementptr inbounds [200 x i32], [200 x i32]* %31, i64 0, i64 %33
  store i32 %28, i32* %34, align 4
  br label %35

35:                                               ; preds = %26
  %36 = load i32, i32* %5, align 4
  %37 = add nsw i32 %36, 1
  store i32 %37, i32* %5, align 4
  br label %21

38:                                               ; preds = %21
  br label %39

39:                                               ; preds = %38
  %40 = load i32, i32* %4, align 4
  %41 = add nsw i32 %40, 1
  store i32 %41, i32* %4, align 4
  br label %15

42:                                               ; preds = %15
  %43 = call i32 (i8*, ...) @__isoc99_scanf(i8* getelementptr inbounds ([6 x i8], [6 x i8]* @.str, i64 0, i64 0), i32* %8, i32* %10)
  store i32 0, i32* %4, align 4
  br label %44

44:                                               ; preds = %68, %42
  %45 = load i32, i32* %4, align 4
  %46 = load i32, i32* %8, align 4
  %47 = sub nsw i32 %46, 1
  %48 = icmp sle i32 %45, %47
  br i1 %48, label %49, label %71

49:                                               ; preds = %44
  store i32 0, i32* %5, align 4
  br label %50

50:                                               ; preds = %64, %49
  %51 = load i32, i32* %5, align 4
  %52 = load i32, i32* %10, align 4
  %53 = sub nsw i32 %52, 1
  %54 = icmp sle i32 %51, %53
  br i1 %54, label %55, label %67

55:                                               ; preds = %50
  %56 = call i32 (i8*, ...) @__isoc99_scanf(i8* getelementptr inbounds ([3 x i8], [3 x i8]* @.str.1, i64 0, i64 0), i32* %6)
  %57 = load i32, i32* %6, align 4
  %58 = load i32, i32* %4, align 4
  %59 = sext i32 %58 to i64
  %60 = getelementptr inbounds [200 x [200 x i32]], [200 x [200 x i32]]* %2, i64 0, i64 %59
  %61 = load i32, i32* %5, align 4
  %62 = sext i32 %61 to i64
  %63 = getelementptr inbounds [200 x i32], [200 x i32]* %60, i64 0, i64 %62
  store i32 %57, i32* %63, align 4
  br label %64

64:                                               ; preds = %55
  %65 = load i32, i32* %5, align 4
  %66 = add nsw i32 %65, 1
  store i32 %66, i32* %5, align 4
  br label %50

67:                                               ; preds = %50
  br label %68

68:                                               ; preds = %67
  %69 = load i32, i32* %4, align 4
  %70 = add nsw i32 %69, 1
  store i32 %70, i32* %4, align 4
  br label %44

71:                                               ; preds = %44
  store i32 0, i32* %4, align 4
  store i32 0, i32* %5, align 4
  br label %72

72:                                               ; preds = %120, %71
  %73 = load i32, i32* %4, align 4
  %74 = load i32, i32* %7, align 4
  %75 = sub nsw i32 %74, 1
  %76 = icmp sle i32 %73, %75
  br i1 %76, label %77, label %123

77:                                               ; preds = %72
  br label %78

78:                                               ; preds = %110, %77
  %79 = load i32, i32* %5, align 4
  %80 = load i32, i32* %10, align 4
  %81 = sub nsw i32 %80, 1
  %82 = icmp sle i32 %79, %81
  br i1 %82, label %83, label %120

83:                                               ; preds = %78
  store i32 0, i32* %12, align 4
  br label %84

84:                                               ; preds = %107, %83
  %85 = load i32, i32* %12, align 4
  %86 = load i32, i32* %9, align 4
  %87 = sub nsw i32 %86, 1
  %88 = icmp sle i32 %85, %87
  br i1 %88, label %89, label %110

89:                                               ; preds = %84
  %90 = load i32, i32* %11, align 4
  %91 = load i32, i32* %4, align 4
  %92 = sext i32 %91 to i64
  %93 = getelementptr inbounds [200 x [200 x i32]], [200 x [200 x i32]]* %1, i64 0, i64 %92
  %94 = load i32, i32* %12, align 4
  %95 = sext i32 %94 to i64
  %96 = getelementptr inbounds [200 x i32], [200 x i32]* %93, i64 0, i64 %95
  %97 = load i32, i32* %96, align 4
  %98 = load i32, i32* %12, align 4
  %99 = sext i32 %98 to i64
  %100 = getelementptr inbounds [200 x [200 x i32]], [200 x [200 x i32]]* %2, i64 0, i64 %99
  %101 = load i32, i32* %5, align 4
  %102 = sext i32 %101 to i64
  %103 = getelementptr inbounds [200 x i32], [200 x i32]* %100, i64 0, i64 %102
  %104 = load i32, i32* %103, align 4
  %105 = mul nsw i32 %97, %104
  %106 = add nsw i32 %90, %105
  store i32 %106, i32* %11, align 4
  br label %107

107:                                              ; preds = %89
  %108 = load i32, i32* %12, align 4
  %109 = add nsw i32 %108, 1
  store i32 %109, i32* %12, align 4
  br label %84

110:                                              ; preds = %84
  %111 = load i32, i32* %11, align 4
  %112 = load i32, i32* %4, align 4
  %113 = sext i32 %112 to i64
  %114 = getelementptr inbounds [200 x [200 x i32]], [200 x [200 x i32]]* %3, i64 0, i64 %113
  %115 = load i32, i32* %5, align 4
  %116 = sext i32 %115 to i64
  %117 = getelementptr inbounds [200 x i32], [200 x i32]* %114, i64 0, i64 %116
  store i32 %111, i32* %117, align 4
  store i32 0, i32* %11, align 4
  %118 = load i32, i32* %5, align 4
  %119 = add nsw i32 %118, 1
  store i32 %119, i32* %5, align 4
  br label %78

120:                                              ; preds = %78
  %121 = load i32, i32* %4, align 4
  %122 = add nsw i32 %121, 1
  store i32 %122, i32* %4, align 4
  store i32 0, i32* %5, align 4
  br label %72

123:                                              ; preds = %72
  store i32 0, i32* %4, align 4
  br label %124

124:                                              ; preds = %169, %123
  %125 = load i32, i32* %4, align 4
  %126 = load i32, i32* %7, align 4
  %127 = sub nsw i32 %126, 1
  %128 = icmp sle i32 %125, %127
  br i1 %128, label %129, label %172

129:                                              ; preds = %124
  store i32 0, i32* %5, align 4
  br label %130

130:                                              ; preds = %165, %129
  %131 = load i32, i32* %5, align 4
  %132 = load i32, i32* %10, align 4
  %133 = sub nsw i32 %132, 1
  %134 = icmp sle i32 %131, %133
  br i1 %134, label %135, label %168

135:                                              ; preds = %130
  %136 = load i32, i32* %5, align 4
  %137 = load i32, i32* %10, align 4
  %138 = sub nsw i32 %137, 1
  %139 = icmp slt i32 %136, %138
  br i1 %139, label %140, label %149

140:                                              ; preds = %135
  %141 = load i32, i32* %4, align 4
  %142 = sext i32 %141 to i64
  %143 = getelementptr inbounds [200 x [200 x i32]], [200 x [200 x i32]]* %3, i64 0, i64 %142
  %144 = load i32, i32* %5, align 4
  %145 = sext i32 %144 to i64
  %146 = getelementptr inbounds [200 x i32], [200 x i32]* %143, i64 0, i64 %145
  %147 = load i32, i32* %146, align 4
  %148 = call i32 (i8*, ...) @printf(i8* getelementptr inbounds ([4 x i8], [4 x i8]* @.str.2, i64 0, i64 0), i32 %147)
  br label %164

149:                                              ; preds = %135
  %150 = load i32, i32* %5, align 4
  %151 = load i32, i32* %10, align 4
  %152 = sub nsw i32 %151, 1
  %153 = icmp eq i32 %150, %152
  br i1 %153, label %154, label %163

154:                                              ; preds = %149
  %155 = load i32, i32* %4, align 4
  %156 = sext i32 %155 to i64
  %157 = getelementptr inbounds [200 x [200 x i32]], [200 x [200 x i32]]* %3, i64 0, i64 %156
  %158 = load i32, i32* %5, align 4
  %159 = sext i32 %158 to i64
  %160 = getelementptr inbounds [200 x i32], [200 x i32]* %157, i64 0, i64 %159
  %161 = load i32, i32* %160, align 4
  %162 = call i32 (i8*, ...) @printf(i8* getelementptr inbounds ([4 x i8], [4 x i8]* @.str.3, i64 0, i64 0), i32 %161)
  br label %163

163:                                              ; preds = %154, %149
  br label %164

164:                                              ; preds = %163, %140
  br label %165

165:                                              ; preds = %164
  %166 = load i32, i32* %5, align 4
  %167 = add nsw i32 %166, 1
  store i32 %167, i32* %5, align 4
  br label %130

168:                                              ; preds = %130
  br label %169

169:                                              ; preds = %168
  %170 = load i32, i32* %4, align 4
  %171 = add nsw i32 %170, 1
  store i32 %171, i32* %4, align 4
  br label %124

172:                                              ; preds = %124
  ret void
}

; Function Attrs: argmemonly nounwind willreturn
declare void @llvm.memset.p0i8.i64(i8* nocapture writeonly, i8, i64, i1 immarg) #1

declare dso_local i32 @__isoc99_scanf(i8*, ...) #2

declare dso_local i32 @printf(i8*, ...) #2


!llvm.module.flags = !{!0}
!llvm.ident = !{!1}

!0 = !{i32 1, !"wchar_size", i32 4}
!1 = !{!"clang version 10.0.0-4ubuntu1 "}
